target datalayout = "e-m:e-p270:32:32-p271:32:32-p272:64:64-i64:64-i128:128-f80:128-n8:16:32:64-S128"
target triple = "x86_64-pc-linux-gnu"

%struct.DynBuffer = type { i32, i32, i32, ptr, i32, [1 x i8] }

; Function Attrs: nounwind uwtable
define internal i64 @dyn_buf_seek(ptr noundef %0, i64 noundef %1, i32 noundef %2) #0 {
  %4 = alloca i64, align 8
  %5 = alloca ptr, align 8
  %6 = alloca i64, align 8
  %7 = alloca i32, align 4
  %8 = alloca ptr, align 8
  %9 = alloca i32, align 4
  store ptr %0, ptr %5, align 8, !tbaa !13
  store i64 %1, ptr %6, align 8, !tbaa !53
  store i32 %2, ptr %7, align 4, !tbaa !11
  call void @llvm.lifetime.start.p0(i64 8, ptr %8) #12
  %10 = load ptr, ptr %5, align 8, !tbaa !13
  store ptr %10, ptr %8, align 8, !tbaa !99
  %11 = load i32, ptr %7, align 4, !tbaa !11
  %12 = icmp eq i32 %11, 1
  br i1 %12, label %13, label %20

13:                                               ; preds = %3
  %14 = load ptr, ptr %8, align 8, !tbaa !99
  %15 = getelementptr inbounds nuw %struct.DynBuffer, ptr %14, i32 0, i32 0
  %16 = load i32, ptr %15, align 8, !tbaa !105
  %17 = sext i32 %16 to i64
  %18 = load i64, ptr %6, align 8, !tbaa !53
  %19 = add nsw i64 %18, %17
  store i64 %19, ptr %6, align 8, !tbaa !53
  br label %31

20:                                               ; preds = %3
  %21 = load i32, ptr %7, align 4, !tbaa !11
  %22 = icmp eq i32 %21, 2
  br i1 %22, label %23, label %30

23:                                               ; preds = %20
  %24 = load ptr, ptr %8, align 8, !tbaa !99
  %25 = getelementptr inbounds nuw %struct.DynBuffer, ptr %24, i32 0, i32 1
  %26 = load i32, ptr %25, align 4, !tbaa !103
  %27 = sext i32 %26 to i64
  %28 = load i64, ptr %6, align 8, !tbaa !53
  %29 = add nsw i64 %28, %27
  store i64 %29, ptr %6, align 8, !tbaa !53
  br label %30

30:                                               ; preds = %23, %20
  br label %31

31:                                               ; preds = %30, %13
  %32 = load i64, ptr %6, align 8, !tbaa !53
  %33 = icmp slt i64 %32, 0
  br i1 %33, label %34, label %35

34:                                               ; preds = %31
  store i64 -22, ptr %4, align 8
  store i32 1, ptr %9, align 4
  br label %44

35:                                               ; preds = %31
  %36 = load i64, ptr %6, align 8, !tbaa !53
  %37 = icmp sgt i64 %36, 2147483647
  br i1 %37, label %38, label %39

38:                                               ; preds = %35
  store i64 -34, ptr %4, align 8
  store i32 1, ptr %9, align 4
  br label %44

39:                                               ; preds = %35
  %40 = load i64, ptr %6, align 8, !tbaa !53
  %41 = trunc i64 %40 to i32
  %42 = load ptr, ptr %8, align 8, !tbaa !99
  %43 = getelementptr inbounds nuw %struct.DynBuffer, ptr %42, i32 0, i32 0
  store i32 %41, ptr %43, align 8, !tbaa !105
  store i64 0, ptr %4, align 8
  store i32 1, ptr %9, align 4
  br label %44

44:                                               ; preds = %39, %38, %34
  call void @llvm.lifetime.end.p0(i64 8, ptr %8) #12
  %45 = load i64, ptr %4, align 8
  ret i64 %45
}