; Function Attrs: mustprogress nofree norecurse nosync nounwind willreturn memory(argmem: readwrite) uwtable
define internal range(i64 -34, 1) i64 @dyn_buf_seek(ptr noundef captures(none) %0, i64 noundef %1, i32 noundef %2) #9 {
  switch i32 %2, label %13 [
    i32 1, label %4
    i32 2, label %8
  ]

4:                                                ; preds = %3
  %5 = load i32, ptr %0, align 8, !tbaa !83
  %6 = sext i32 %5 to i64
  %7 = add nsw i64 %1, %6
  br label %13

8:                                                ; preds = %3
  %9 = getelementptr inbounds nuw i8, ptr %0, i64 4
  %10 = load i32, ptr %9, align 4, !tbaa !81
  %11 = sext i32 %10 to i64
  %12 = add nsw i64 %1, %11
  br label %13

13:                                               ; preds = %3, %8, %4
  %.011 = phi i64 [ %7, %4 ], [ %12, %8 ], [ %1, %3 ]
  %14 = icmp slt i64 %.011, 0
  br i1 %14, label %19, label %15

15:                                               ; preds = %13
  %16 = icmp samesign ugt i64 %.011, 2147483647
  br i1 %16, label %19, label %17

17:                                               ; preds = %15
  %18 = trunc nuw nsw i64 %.011 to i32
  store i32 %18, ptr %0, align 8, !tbaa !83
  br label %19

19:                                               ; preds = %15, %13, %17
  %.0 = phi i64 [ 0, %17 ], [ -22, %13 ], [ -34, %15 ]
  ret i64 %.0
}